target datalayout = "e-m:e-p270:32:32-p271:32:32-p272:64:64-i64:64-i128:128-f80:128-n8:16:32:64-S128"
target triple = "x86_64-pc-linux-gnu"

%struct.TCGMovExtend = type { i32, i32, i32, i32, i32 }

@.str.4 = private unnamed_addr constant [18 x i8] c"../qemu/tcg/tcg.c\00", align 1
@__func__.tcg_out_movext = private unnamed_addr constant [15 x i8] c"tcg_out_movext\00", align 1

; Function Attrs: nounwind sspstrong uwtable
define internal void @tcg_out_ext32u(ptr noundef %0, i32 noundef %1, i32 noundef %2) #0 {
  %4 = alloca ptr, align 8
  %5 = alloca i32, align 4
  %6 = alloca i32, align 4
  store ptr %0, ptr %4, align 8
  store i32 %1, ptr %5, align 4
  store i32 %2, ptr %6, align 4
  %7 = load ptr, ptr %4, align 8
  %8 = load i32, ptr %5, align 4
  %9 = load i32, ptr %6, align 4
  call void @tcg_out_modrm(ptr noundef %7, i32 noundef 139, i32 noundef %8, i32 noundef %9)
  ret void
}

; Function Attrs: nounwind sspstrong uwtable
define internal void @tcg_out_ext32s(ptr noundef %0, i32 noundef %1, i32 noundef %2) #0 {
  %4 = alloca ptr, align 8
  %5 = alloca i32, align 4
  %6 = alloca i32, align 4
  store ptr %0, ptr %4, align 8
  store i32 %1, ptr %5, align 4
  store i32 %2, ptr %6, align 4
  br label %7

7:                                                ; preds = %3
  br label %8

8:                                                ; preds = %7
  %9 = load ptr, ptr %4, align 8
  %10 = load i32, ptr %5, align 4
  %11 = load i32, ptr %6, align 4
  call void @tcg_out_modrm(ptr noundef %9, i32 noundef 4195, i32 noundef %10, i32 noundef %11)
  ret void
}

; Function Attrs: nounwind sspstrong uwtable
define internal void @tcg_out_extu_i32_i64(ptr noundef %0, i32 noundef %1, i32 noundef %2) #0 {
  %4 = alloca ptr, align 8
  %5 = alloca i32, align 4
  %6 = alloca i32, align 4
  store ptr %0, ptr %4, align 8
  store i32 %1, ptr %5, align 4
  store i32 %2, ptr %6, align 4
  %7 = load i32, ptr %5, align 4
  %8 = load i32, ptr %6, align 4
  %9 = icmp ne i32 %7, %8
  br i1 %9, label %10, label %14

10:                                               ; preds = %3
  %11 = load ptr, ptr %4, align 8
  %12 = load i32, ptr %5, align 4
  %13 = load i32, ptr %6, align 4
  call void @tcg_out_ext32u(ptr noundef %11, i32 noundef %12, i32 noundef %13)
  br label %14

14:                                               ; preds = %10, %3
  ret void
}

; Function Attrs: nounwind sspstrong uwtable
define internal void @tcg_out_exts_i32_i64(ptr noundef %0, i32 noundef %1, i32 noundef %2) #0 {
  %4 = alloca ptr, align 8
  %5 = alloca i32, align 4
  %6 = alloca i32, align 4
  store ptr %0, ptr %4, align 8
  store i32 %1, ptr %5, align 4
  store i32 %2, ptr %6, align 4
  %7 = load ptr, ptr %4, align 8
  %8 = load i32, ptr %5, align 4
  %9 = load i32, ptr %6, align 4
  call void @tcg_out_ext32s(ptr noundef %7, i32 noundef %8, i32 noundef %9)
  ret void
}

; Function Attrs: nounwind sspstrong uwtable
define internal void @tcg_out_extrl_i64_i32(ptr noundef %0, i32 noundef %1, i32 noundef %2) #0 {
  %4 = alloca ptr, align 8
  %5 = alloca i32, align 4
  %6 = alloca i32, align 4
  store ptr %0, ptr %4, align 8
  store i32 %1, ptr %5, align 4
  store i32 %2, ptr %6, align 4
  %7 = load ptr, ptr %4, align 8
  %8 = load i32, ptr %5, align 4
  %9 = load i32, ptr %6, align 4
  call void @tcg_out_ext32u(ptr noundef %7, i32 noundef %8, i32 noundef %9)
  ret void
}

; Function Attrs: nounwind sspstrong uwtable
define internal void @tcg_out_ext16s(ptr noundef %0, i32 noundef %1, i32 noundef %2, i32 noundef %3) #0 {
  %5 = alloca ptr, align 8
  %6 = alloca i32, align 4
  %7 = alloca i32, align 4
  %8 = alloca i32, align 4
  %9 = alloca i32, align 4
  store ptr %0, ptr %5, align 8
  store i32 %1, ptr %6, align 4
  store i32 %2, ptr %7, align 4
  store i32 %3, ptr %8, align 4
  call void @llvm.lifetime.start.p0(i64 4, ptr %9) #19
  %10 = load i32, ptr %6, align 4
  %11 = icmp eq i32 %10, 0
  %12 = select i1 %11, i32 0, i32 4096
  store i32 %12, ptr %9, align 4
  %13 = load ptr, ptr %5, align 8
  %14 = load i32, ptr %9, align 4
  %15 = add i32 447, %14
  %16 = load i32, ptr %7, align 4
  %17 = load i32, ptr %8, align 4
  call void @tcg_out_modrm(ptr noundef %13, i32 noundef %15, i32 noundef %16, i32 noundef %17)
  call void @llvm.lifetime.end.p0(i64 4, ptr %9) #19
  ret void
}

; Function Attrs: nounwind sspstrong uwtable
define internal void @tcg_out_ext16u(ptr noundef %0, i32 noundef %1, i32 noundef %2) #0 {
  %4 = alloca ptr, align 8
  %5 = alloca i32, align 4
  %6 = alloca i32, align 4
  store ptr %0, ptr %4, align 8
  store i32 %1, ptr %5, align 4
  store i32 %2, ptr %6, align 4
  %7 = load ptr, ptr %4, align 8
  %8 = load i32, ptr %5, align 4
  %9 = load i32, ptr %6, align 4
  call void @tcg_out_modrm(ptr noundef %7, i32 noundef 439, i32 noundef %8, i32 noundef %9)
  ret void
}

; Function Attrs: nounwind sspstrong uwtable
define internal void @tcg_out_ext8s(ptr noundef %0, i32 noundef %1, i32 noundef %2, i32 noundef %3) #0 {
  %5 = alloca ptr, align 8
  %6 = alloca i32, align 4
  %7 = alloca i32, align 4
  %8 = alloca i32, align 4
  %9 = alloca i32, align 4
  store ptr %0, ptr %5, align 8
  store i32 %1, ptr %6, align 4
  store i32 %2, ptr %7, align 4
  store i32 %3, ptr %8, align 4
  call void @llvm.lifetime.start.p0(i64 4, ptr %9) #19
  %10 = load i32, ptr %6, align 4
  %11 = icmp eq i32 %10, 0
  %12 = select i1 %11, i32 0, i32 4096
  store i32 %12, ptr %9, align 4
  %13 = load ptr, ptr %5, align 8
  %14 = load i32, ptr %9, align 4
  %15 = add i32 16830, %14
  %16 = load i32, ptr %7, align 4
  %17 = load i32, ptr %8, align 4
  call void @tcg_out_modrm(ptr noundef %13, i32 noundef %15, i32 noundef %16, i32 noundef %17)
  call void @llvm.lifetime.end.p0(i64 4, ptr %9) #19
  ret void
}

; Function Attrs: nounwind sspstrong uwtable
define internal void @tcg_out_ext8u(ptr noundef %0, i32 noundef %1, i32 noundef %2) #0 {
  %4 = alloca ptr, align 8
  %5 = alloca i32, align 4
  %6 = alloca i32, align 4
  store ptr %0, ptr %4, align 8
  store i32 %1, ptr %5, align 4
  store i32 %2, ptr %6, align 4
  %7 = load ptr, ptr %4, align 8
  %8 = load i32, ptr %5, align 4
  %9 = load i32, ptr %6, align 4
  call void @tcg_out_modrm(ptr noundef %7, i32 noundef 16822, i32 noundef %8, i32 noundef %9)
  ret void
}

; Function Attrs: nounwind sspstrong uwtable
define internal void @tcg_out_movext(ptr noundef %0, i32 noundef %1, i32 noundef %2, i32 noundef %3, i32 noundef %4, i32 noundef %5) #0 {
  %7 = alloca ptr, align 8
  %8 = alloca i32, align 4
  %9 = alloca i32, align 4
  %10 = alloca i32, align 4
  %11 = alloca i32, align 4
  %12 = alloca i32, align 4
  store ptr %0, ptr %7, align 8
  store i32 %1, ptr %8, align 4
  store i32 %2, ptr %9, align 4
  store i32 %3, ptr %10, align 4
  store i32 %4, ptr %11, align 4
  store i32 %5, ptr %12, align 4
  %13 = load i32, ptr %11, align 4
  switch i32 %13, label %94 [
    i32 0, label %14
    i32 8, label %18
    i32 1, label %23
    i32 9, label %27
    i32 2, label %32
    i32 10, label %32
    i32 3, label %79
  ]

14:                                               ; preds = %6
  %15 = load ptr, ptr %7, align 8
  %16 = load i32, ptr %9, align 4
  %17 = load i32, ptr %12, align 4
  call void @tcg_out_ext8u(ptr noundef %15, i32 noundef %16, i32 noundef %17)
  br label %97

18:                                               ; preds = %6
  %19 = load ptr, ptr %7, align 8
  %20 = load i32, ptr %8, align 4
  %21 = load i32, ptr %9, align 4
  %22 = load i32, ptr %12, align 4
  call void @tcg_out_ext8s(ptr noundef %19, i32 noundef %20, i32 noundef %21, i32 noundef %22)
  br label %97

23:                                               ; preds = %6
  %24 = load ptr, ptr %7, align 8
  %25 = load i32, ptr %9, align 4
  %26 = load i32, ptr %12, align 4
  call void @tcg_out_ext16u(ptr noundef %24, i32 noundef %25, i32 noundef %26)
  br label %97

27:                                               ; preds = %6
  %28 = load ptr, ptr %7, align 8
  %29 = load i32, ptr %8, align 4
  %30 = load i32, ptr %9, align 4
  %31 = load i32, ptr %12, align 4
  call void @tcg_out_ext16s(ptr noundef %28, i32 noundef %29, i32 noundef %30, i32 noundef %31)
  br label %97

32:                                               ; preds = %6, %6
  %33 = load i32, ptr %8, align 4
  %34 = icmp eq i32 %33, 0
  br i1 %34, label %35, label %48

35:                                               ; preds = %32
  %36 = load i32, ptr %10, align 4
  %37 = icmp eq i32 %36, 0
  br i1 %37, label %38, label %43

38:                                               ; preds = %35
  %39 = load ptr, ptr %7, align 8
  %40 = load i32, ptr %9, align 4
  %41 = load i32, ptr %12, align 4
  %42 = call zeroext i1 @tcg_out_mov(ptr noundef %39, i32 noundef 0, i32 noundef %40, i32 noundef %41)
  br label %47

43:                                               ; preds = %35
  %44 = load ptr, ptr %7, align 8
  %45 = load i32, ptr %9, align 4
  %46 = load i32, ptr %12, align 4
  call void @tcg_out_extrl_i64_i32(ptr noundef %44, i32 noundef %45, i32 noundef %46)
  br label %47

47:                                               ; preds = %43, %38
  br label %78

48:                                               ; preds = %32
  %49 = load i32, ptr %10, align 4
  %50 = icmp eq i32 %49, 0
  br i1 %50, label %51, label %64

51:                                               ; preds = %48
  %52 = load i32, ptr %11, align 4
  %53 = and i32 %52, 8
  %54 = icmp ne i32 %53, 0
  br i1 %54, label %55, label %59

55:                                               ; preds = %51
  %56 = load ptr, ptr %7, align 8
  %57 = load i32, ptr %9, align 4
  %58 = load i32, ptr %12, align 4
  call void @tcg_out_exts_i32_i64(ptr noundef %56, i32 noundef %57, i32 noundef %58)
  br label %63

59:                                               ; preds = %51
  %60 = load ptr, ptr %7, align 8
  %61 = load i32, ptr %9, align 4
  %62 = load i32, ptr %12, align 4
  call void @tcg_out_extu_i32_i64(ptr noundef %60, i32 noundef %61, i32 noundef %62)
  br label %63

63:                                               ; preds = %59, %55
  br label %77

64:                                               ; preds = %48
  %65 = load i32, ptr %11, align 4
  %66 = and i32 %65, 8
  %67 = icmp ne i32 %66, 0
  br i1 %67, label %68, label %72

68:                                               ; preds = %64
  %69 = load ptr, ptr %7, align 8
  %70 = load i32, ptr %9, align 4
  %71 = load i32, ptr %12, align 4
  call void @tcg_out_ext32s(ptr noundef %69, i32 noundef %70, i32 noundef %71)
  br label %76

72:                                               ; preds = %64
  %73 = load ptr, ptr %7, align 8
  %74 = load i32, ptr %9, align 4
  %75 = load i32, ptr %12, align 4
  call void @tcg_out_ext32u(ptr noundef %73, i32 noundef %74, i32 noundef %75)
  br label %76

76:                                               ; preds = %72, %68
  br label %77

77:                                               ; preds = %76, %63
  br label %78

78:                                               ; preds = %77, %47
  br label %97

79:                                               ; preds = %6
  br label %80

80:                                               ; preds = %79
  br label %81

81:                                               ; preds = %80
  %82 = load i32, ptr %8, align 4
  %83 = icmp eq i32 %82, 0
  br i1 %83, label %84, label %88

84:                                               ; preds = %81
  %85 = load ptr, ptr %7, align 8
  %86 = load i32, ptr %9, align 4
  %87 = load i32, ptr %12, align 4
  call void @tcg_out_extrl_i64_i32(ptr noundef %85, i32 noundef %86, i32 noundef %87)
  br label %93

88:                                               ; preds = %81
  %89 = load ptr, ptr %7, align 8
  %90 = load i32, ptr %9, align 4
  %91 = load i32, ptr %12, align 4
  %92 = call zeroext i1 @tcg_out_mov(ptr noundef %89, i32 noundef 1, i32 noundef %90, i32 noundef %91)
  br label %93

93:                                               ; preds = %88, %84
  br label %97

94:                                               ; preds = %6
  br label %95

95:                                               ; preds = %94
  call void @g_assertion_message_expr(ptr noundef null, ptr noundef @.str.4, i32 noundef 512, ptr noundef @__func__.tcg_out_movext, ptr noundef null) #20
  unreachable

96:                                               ; No predecessors!
  br label %97

97:                                               ; preds = %96, %93, %78, %27, %23, %18, %14
  ret void
}

; Function Attrs: nounwind sspstrong uwtable
define internal void @tcg_out_movext1_new_src(ptr noundef %0, ptr noundef %1, i32 noundef %2) #0 {
  %4 = alloca ptr, align 8
  %5 = alloca ptr, align 8
  %6 = alloca i32, align 4
  store ptr %0, ptr %4, align 8
  store ptr %1, ptr %5, align 8
  store i32 %2, ptr %6, align 4
  %7 = load ptr, ptr %4, align 8
  %8 = load ptr, ptr %5, align 8
  %9 = getelementptr inbounds nuw %struct.TCGMovExtend, ptr %8, i32 0, i32 2
  %10 = load i32, ptr %9, align 4
  %11 = load ptr, ptr %5, align 8
  %12 = getelementptr inbounds nuw %struct.TCGMovExtend, ptr %11, i32 0, i32 0
  %13 = load i32, ptr %12, align 4
  %14 = load ptr, ptr %5, align 8
  %15 = getelementptr inbounds nuw %struct.TCGMovExtend, ptr %14, i32 0, i32 3
  %16 = load i32, ptr %15, align 4
  %17 = load ptr, ptr %5, align 8
  %18 = getelementptr inbounds nuw %struct.TCGMovExtend, ptr %17, i32 0, i32 4
  %19 = load i32, ptr %18, align 4
  %20 = load i32, ptr %6, align 4
  call void @tcg_out_movext(ptr noundef %7, i32 noundef %10, i32 noundef %13, i32 noundef %16, i32 noundef %19, i32 noundef %20)
  ret void
}