; Function Attrs: nounwind sspstrong uwtable
define internal fastcc void @tcg_out_movext1_new_src(ptr noundef captures(none) %0, ptr noundef nonnull readonly captures(none) %1, i32 noundef %2) unnamed_addr #0 {
  %4 = getelementptr inbounds nuw i8, ptr %1, i64 8
  %5 = load i32, ptr %4, align 4
  %6 = load i32, ptr %1, align 4
  %7 = getelementptr inbounds nuw i8, ptr %1, i64 16
  %8 = load i32, ptr %7, align 4
  switch i32 %8, label %203 [
    i32 0, label %9
    i32 8, label %35
    i32 1, label %38
    i32 9, label %62
    i32 2, label %65
    i32 10, label %65
    i32 3, label %178
  ]

9:                                                ; preds = %3
  %10 = lshr i32 %6, 1
  %11 = and i32 %10, 4
  %12 = lshr i32 %2, 3
  %13 = and i32 %12, 1
  %14 = or disjoint i32 %11, %13
  %15 = icmp slt i32 %2, 4
  %16 = icmp eq i32 %14, 0
  %.not37.i.i.i.i = and i1 %15, %16
  br i1 %.not37.i.i.i.i, label %tcg_out_ext8u.exit.i, label %17

17:                                               ; preds = %9
  %18 = trunc nuw nsw i32 %14 to i8
  %19 = or disjoint i8 %18, 64
  %20 = getelementptr inbounds nuw i8, ptr %0, i64 128
  %21 = load ptr, ptr %20, align 8
  %22 = getelementptr inbounds nuw i8, ptr %21, i64 1
  store ptr %22, ptr %20, align 8
  store i8 %19, ptr %21, align 1
  br label %tcg_out_ext8u.exit.i

tcg_out_ext8u.exit.i:                             ; preds = %17, %9
  %23 = getelementptr inbounds nuw i8, ptr %0, i64 128
  %24 = load ptr, ptr %23, align 8
  %25 = getelementptr inbounds nuw i8, ptr %24, i64 1
  store ptr %25, ptr %23, align 8
  store i8 15, ptr %24, align 1
  %26 = load ptr, ptr %23, align 8
  %27 = getelementptr inbounds nuw i8, ptr %26, i64 1
  store ptr %27, ptr %23, align 8
  store i8 -74, ptr %26, align 1
  %28 = shl i32 %6, 3
  %29 = and i32 %2, 7
  %30 = or disjoint i32 %28, %29
  %31 = trunc i32 %30 to i8
  %32 = or i8 %31, -64
  %33 = load ptr, ptr %23, align 8
  %34 = getelementptr inbounds nuw i8, ptr %33, i64 1
  store ptr %34, ptr %23, align 8
  store i8 %32, ptr %33, align 1
  br label %tcg_out_movext.exit

35:                                               ; preds = %3
  %36 = icmp eq i32 %5, 0
  %37 = select i1 %36, i32 16830, i32 20926
  tail call fastcc void @tcg_out_modrm(ptr noundef %0, i32 noundef %37, i32 noundef %6, i32 noundef %2)
  br label %tcg_out_movext.exit

38:                                               ; preds = %3
  %39 = lshr i32 %6, 1
  %40 = and i32 %39, 4
  %41 = lshr i32 %2, 3
  %42 = and i32 %41, 1
  %43 = or disjoint i32 %40, %42
  %.not37.i.i.i45.i = icmp eq i32 %43, 0
  br i1 %.not37.i.i.i45.i, label %tcg_out_ext16u.exit.i, label %44

44:                                               ; preds = %38
  %45 = trunc nuw nsw i32 %43 to i8
  %46 = or disjoint i8 %45, 64
  %47 = getelementptr inbounds nuw i8, ptr %0, i64 128
  %48 = load ptr, ptr %47, align 8
  %49 = getelementptr inbounds nuw i8, ptr %48, i64 1
  store ptr %49, ptr %47, align 8
  store i8 %46, ptr %48, align 1
  br label %tcg_out_ext16u.exit.i

tcg_out_ext16u.exit.i:                            ; preds = %44, %38
  %50 = getelementptr inbounds nuw i8, ptr %0, i64 128
  %51 = load ptr, ptr %50, align 8
  %52 = getelementptr inbounds nuw i8, ptr %51, i64 1
  store ptr %52, ptr %50, align 8
  store i8 15, ptr %51, align 1
  %53 = load ptr, ptr %50, align 8
  %54 = getelementptr inbounds nuw i8, ptr %53, i64 1
  store ptr %54, ptr %50, align 8
  store i8 -73, ptr %53, align 1
  %55 = shl i32 %6, 3
  %56 = and i32 %2, 7
  %57 = or disjoint i32 %55, %56
  %58 = trunc i32 %57 to i8
  %59 = or i8 %58, -64
  %60 = load ptr, ptr %50, align 8
  %61 = getelementptr inbounds nuw i8, ptr %60, i64 1
  store ptr %61, ptr %50, align 8
  store i8 %59, ptr %60, align 1
  br label %tcg_out_movext.exit

62:                                               ; preds = %3
  %63 = icmp eq i32 %5, 0
  %64 = select i1 %63, i32 447, i32 4543
  tail call fastcc void @tcg_out_modrm(ptr noundef %0, i32 noundef %64, i32 noundef %6, i32 noundef %2)
  br label %tcg_out_movext.exit

65:                                               ; preds = %3, %3
  %66 = getelementptr inbounds nuw i8, ptr %1, i64 12
  %67 = load i32, ptr %66, align 4
  %68 = icmp eq i32 %5, 0
  %69 = icmp eq i32 %67, 0
  br i1 %68, label %70, label %94

70:                                               ; preds = %65
  br i1 %69, label %71, label %72

71:                                               ; preds = %70
  tail call fastcc void @tcg_out_mov(ptr noundef %0, i32 noundef 0, i32 noundef %6, i32 noundef %2)
  br label %tcg_out_movext.exit

72:                                               ; preds = %70
  %73 = lshr i32 %6, 1
  %74 = and i32 %73, 4
  %75 = lshr i32 %2, 3
  %76 = and i32 %75, 1
  %77 = or disjoint i32 %74, %76
  %.not37.i.i.i.i.i = icmp eq i32 %77, 0
  br i1 %.not37.i.i.i.i.i, label %tcg_out_extrl_i64_i32.exit.i, label %78

78:                                               ; preds = %72
  %79 = trunc nuw nsw i32 %77 to i8
  %80 = or disjoint i8 %79, 64
  %81 = getelementptr inbounds nuw i8, ptr %0, i64 128
  %82 = load ptr, ptr %81, align 8
  %83 = getelementptr inbounds nuw i8, ptr %82, i64 1
  store ptr %83, ptr %81, align 8
  store i8 %80, ptr %82, align 1
  br label %tcg_out_extrl_i64_i32.exit.i

tcg_out_extrl_i64_i32.exit.i:                     ; preds = %78, %72
  %84 = getelementptr inbounds nuw i8, ptr %0, i64 128
  %85 = load ptr, ptr %84, align 8
  %86 = getelementptr inbounds nuw i8, ptr %85, i64 1
  store ptr %86, ptr %84, align 8
  store i8 -117, ptr %85, align 1
  %87 = shl i32 %6, 3
  %88 = and i32 %2, 7
  %89 = or disjoint i32 %87, %88
  %90 = trunc i32 %89 to i8
  %91 = or i8 %90, -64
  %92 = load ptr, ptr %84, align 8
  %93 = getelementptr inbounds nuw i8, ptr %92, i64 1
  store ptr %93, ptr %84, align 8
  store i8 %91, ptr %92, align 1
  br label %tcg_out_movext.exit

94:                                               ; preds = %65
  %95 = and i32 %8, 8
  %.not44.i = icmp eq i32 %95, 0
  br i1 %69, label %96, label %140

96:                                               ; preds = %94
  br i1 %.not44.i, label %117, label %97

97:                                               ; preds = %96
  %98 = lshr i32 %6, 1
  %99 = and i32 %98, 4
  %100 = lshr i32 %2, 3
  %101 = and i32 %100, 1
  %102 = or disjoint i32 %99, %101
  %103 = trunc nuw nsw i32 %102 to i8
  %104 = or disjoint i8 %103, 72
  %105 = getelementptr inbounds nuw i8, ptr %0, i64 128
  %106 = load ptr, ptr %105, align 8
  %107 = getelementptr inbounds nuw i8, ptr %106, i64 1
  store ptr %107, ptr %105, align 8
  store i8 %104, ptr %106, align 1
  %108 = load ptr, ptr %105, align 8
  %109 = getelementptr inbounds nuw i8, ptr %108, i64 1
  store ptr %109, ptr %105, align 8
  store i8 99, ptr %108, align 1
  %110 = shl i32 %6, 3
  %111 = and i32 %2, 7
  %112 = or disjoint i32 %110, %111
  %113 = trunc i32 %112 to i8
  %114 = or i8 %113, -64
  %115 = load ptr, ptr %105, align 8
  %116 = getelementptr inbounds nuw i8, ptr %115, i64 1
  store ptr %116, ptr %105, align 8
  store i8 %114, ptr %115, align 1
  br label %tcg_out_movext.exit

117:                                              ; preds = %96
  %.not.i.i = icmp eq i32 %6, %2
  br i1 %.not.i.i, label %tcg_out_movext.exit, label %118

118:                                              ; preds = %117
  %119 = lshr i32 %6, 1
  %120 = and i32 %119, 4
  %121 = lshr i32 %2, 3
  %122 = and i32 %121, 1
  %123 = or disjoint i32 %120, %122
  %.not37.i.i.i.i46.i = icmp eq i32 %123, 0
  br i1 %.not37.i.i.i.i46.i, label %tcg_out_ext32u.exit.i.i, label %124

124:                                              ; preds = %118
  %125 = trunc nuw nsw i32 %123 to i8
  %126 = or disjoint i8 %125, 64
  %127 = getelementptr inbounds nuw i8, ptr %0, i64 128
  %128 = load ptr, ptr %127, align 8
  %129 = getelementptr inbounds nuw i8, ptr %128, i64 1
  store ptr %129, ptr %127, align 8
  store i8 %126, ptr %128, align 1
  br label %tcg_out_ext32u.exit.i.i

tcg_out_ext32u.exit.i.i:                          ; preds = %124, %118
  %130 = getelementptr inbounds nuw i8, ptr %0, i64 128
  %131 = load ptr, ptr %130, align 8
  %132 = getelementptr inbounds nuw i8, ptr %131, i64 1
  store ptr %132, ptr %130, align 8
  store i8 -117, ptr %131, align 1
  %133 = shl i32 %6, 3
  %134 = and i32 %2, 7
  %135 = or disjoint i32 %133, %134
  %136 = trunc i32 %135 to i8
  %137 = or i8 %136, -64
  %138 = load ptr, ptr %130, align 8
  %139 = getelementptr inbounds nuw i8, ptr %138, i64 1
  store ptr %139, ptr %130, align 8
  store i8 %137, ptr %138, align 1
  br label %tcg_out_movext.exit

140:                                              ; preds = %94
  %141 = lshr i32 %6, 1
  %142 = and i32 %141, 4
  %143 = lshr i32 %2, 3
  %144 = and i32 %143, 1
  %145 = or disjoint i32 %142, %144
  br i1 %.not44.i, label %161, label %146

146:                                              ; preds = %140
  %147 = trunc nuw nsw i32 %145 to i8
  %148 = or disjoint i8 %147, 72
  %149 = getelementptr inbounds nuw i8, ptr %0, i64 128
  %150 = load ptr, ptr %149, align 8
  %151 = getelementptr inbounds nuw i8, ptr %150, i64 1
  store ptr %151, ptr %149, align 8
  store i8 %148, ptr %150, align 1
  %152 = load ptr, ptr %149, align 8
  %153 = getelementptr inbounds nuw i8, ptr %152, i64 1
  store ptr %153, ptr %149, align 8
  store i8 99, ptr %152, align 1
  %154 = shl i32 %6, 3
  %155 = and i32 %2, 7
  %156 = or disjoint i32 %154, %155
  %157 = trunc i32 %156 to i8
  %158 = or i8 %157, -64
  %159 = load ptr, ptr %149, align 8
  %160 = getelementptr inbounds nuw i8, ptr %159, i64 1
  store ptr %160, ptr %149, align 8
  store i8 %158, ptr %159, align 1
  br label %tcg_out_movext.exit

161:                                              ; preds = %140
  %.not37.i.i.i47.i = icmp eq i32 %145, 0
  br i1 %.not37.i.i.i47.i, label %tcg_out_ext32u.exit.i, label %162

162:                                              ; preds = %161
  %163 = trunc nuw nsw i32 %145 to i8
  %164 = or disjoint i8 %163, 64
  %165 = getelementptr inbounds nuw i8, ptr %0, i64 128
  %166 = load ptr, ptr %165, align 8
  %167 = getelementptr inbounds nuw i8, ptr %166, i64 1
  store ptr %167, ptr %165, align 8
  store i8 %164, ptr %166, align 1
  br label %tcg_out_ext32u.exit.i

tcg_out_ext32u.exit.i:                            ; preds = %162, %161
  %168 = getelementptr inbounds nuw i8, ptr %0, i64 128
  %169 = load ptr, ptr %168, align 8
  %170 = getelementptr inbounds nuw i8, ptr %169, i64 1
  store ptr %170, ptr %168, align 8
  store i8 -117, ptr %169, align 1
  %171 = shl i32 %6, 3
  %172 = and i32 %2, 7
  %173 = or disjoint i32 %171, %172
  %174 = trunc i32 %173 to i8
  %175 = or i8 %174, -64
  %176 = load ptr, ptr %168, align 8
  %177 = getelementptr inbounds nuw i8, ptr %176, i64 1
  store ptr %177, ptr %168, align 8
  store i8 %175, ptr %176, align 1
  br label %tcg_out_movext.exit

178:                                              ; preds = %3
  %179 = icmp eq i32 %5, 0
  br i1 %179, label %180, label %202

180:                                              ; preds = %178
  %181 = lshr i32 %6, 1
  %182 = and i32 %181, 4
  %183 = lshr i32 %2, 3
  %184 = and i32 %183, 1
  %185 = or disjoint i32 %182, %184
  %.not37.i.i.i.i48.i = icmp eq i32 %185, 0
  br i1 %.not37.i.i.i.i48.i, label %tcg_out_extrl_i64_i32.exit50.i, label %186

186:                                              ; preds = %180
  %187 = trunc nuw nsw i32 %185 to i8
  %188 = or disjoint i8 %187, 64
  %189 = getelementptr inbounds nuw i8, ptr %0, i64 128
  %190 = load ptr, ptr %189, align 8
  %191 = getelementptr inbounds nuw i8, ptr %190, i64 1
  store ptr %191, ptr %189, align 8
  store i8 %188, ptr %190, align 1
  br label %tcg_out_extrl_i64_i32.exit50.i

tcg_out_extrl_i64_i32.exit50.i:                   ; preds = %186, %180
  %192 = getelementptr inbounds nuw i8, ptr %0, i64 128
  %193 = load ptr, ptr %192, align 8
  %194 = getelementptr inbounds nuw i8, ptr %193, i64 1
  store ptr %194, ptr %192, align 8
  store i8 -117, ptr %193, align 1
  %195 = shl i32 %6, 3
  %196 = and i32 %2, 7
  %197 = or disjoint i32 %195, %196
  %198 = trunc i32 %197 to i8
  %199 = or i8 %198, -64
  %200 = load ptr, ptr %192, align 8
  %201 = getelementptr inbounds nuw i8, ptr %200, i64 1
  store ptr %201, ptr %192, align 8
  store i8 %199, ptr %200, align 1
  br label %tcg_out_movext.exit

202:                                              ; preds = %178
  tail call fastcc void @tcg_out_mov(ptr noundef %0, i32 noundef 1, i32 noundef %6, i32 noundef %2)
  br label %tcg_out_movext.exit

203:                                              ; preds = %3
  tail call void @g_assertion_message_expr(ptr noundef null, ptr noundef nonnull @.str.4, i32 noundef 512, ptr noundef nonnull @__func__.tcg_out_movext, ptr noundef null) #31
  unreachable

tcg_out_movext.exit:                              ; preds = %tcg_out_ext8u.exit.i, %35, %tcg_out_ext16u.exit.i, %62, %71, %tcg_out_extrl_i64_i32.exit.i, %97, %117, %tcg_out_ext32u.exit.i.i, %146, %tcg_out_ext32u.exit.i, %tcg_out_extrl_i64_i32.exit50.i, %202
  ret void
}